target datalayout = "e-m:e-p270:32:32-p271:32:32-p272:64:64-i64:64-i128:128-f80:128-n8:16:32:64-S128"
target triple = "x86_64-pc-linux-gnu"

; Function Attrs: alwaysinline nounwind willreturn memory(none) uwtable
define internal zeroext i8 @av_clip_uint8_c(i32 noundef %0) #2 {
  %2 = alloca i8, align 1
  %3 = alloca i32, align 4
  store i32 %0, ptr %3, align 4, !tbaa !11
  %4 = load i32, ptr %3, align 4, !tbaa !11
  %5 = and i32 %4, -256
  %6 = icmp ne i32 %5, 0
  br i1 %6, label %7, label %12

7:                                                ; preds = %1
  %8 = load i32, ptr %3, align 4, !tbaa !11
  %9 = xor i32 %8, -1
  %10 = ashr i32 %9, 31
  %11 = trunc i32 %10 to i8
  store i8 %11, ptr %2, align 1
  br label %15

12:                                               ; preds = %1
  %13 = load i32, ptr %3, align 4, !tbaa !11
  %14 = trunc i32 %13 to i8
  store i8 %14, ptr %2, align 1
  br label %15

15:                                               ; preds = %12, %7
  %16 = load i8, ptr %2, align 1
  ret i8 %16
}

; Function Attrs: nounwind uwtable
define void @ff_h264_idct_add_8_c(ptr noundef %0, ptr noundef %1, i32 noundef %2) #0 {
  %4 = alloca ptr, align 8
  %5 = alloca ptr, align 8
  %6 = alloca i32, align 4
  %7 = alloca i32, align 4
  %8 = alloca ptr, align 8
  %9 = alloca ptr, align 8
  %10 = alloca i32, align 4
  %11 = alloca i32, align 4
  %12 = alloca i32, align 4
  %13 = alloca i32, align 4
  %14 = alloca i32, align 4
  %15 = alloca i32, align 4
  %16 = alloca i32, align 4
  %17 = alloca i32, align 4
  store ptr %0, ptr %4, align 8, !tbaa !4
  store ptr %1, ptr %5, align 8, !tbaa !9
  store i32 %2, ptr %6, align 4, !tbaa !11
  call void @llvm.lifetime.start.p0(i64 4, ptr %7) #4
  call void @llvm.lifetime.start.p0(i64 8, ptr %8) #4
  %18 = load ptr, ptr %4, align 8, !tbaa !4
  store ptr %18, ptr %8, align 8, !tbaa !4
  call void @llvm.lifetime.start.p0(i64 8, ptr %9) #4
  %19 = load ptr, ptr %5, align 8, !tbaa !9
  store ptr %19, ptr %9, align 8, !tbaa !9
  %20 = load i32, ptr %6, align 4, !tbaa !11
  %21 = ashr i32 %20, 0
  store i32 %21, ptr %6, align 4, !tbaa !11
  %22 = load ptr, ptr %9, align 8, !tbaa !9
  %23 = getelementptr inbounds i16, ptr %22, i64 0
  %24 = load i16, ptr %23, align 2, !tbaa !13
  %25 = sext i16 %24 to i32
  %26 = add nsw i32 %25, 32
  %27 = trunc i32 %26 to i16
  store i16 %27, ptr %23, align 2, !tbaa !13
  store i32 0, ptr %7, align 4, !tbaa !11
  br label %28

28:                                               ; preds = %130, %3
  %29 = load i32, ptr %7, align 4, !tbaa !11
  %30 = icmp slt i32 %29, 4
  br i1 %30, label %31, label %133

31:                                               ; preds = %28
  call void @llvm.lifetime.start.p0(i64 4, ptr %10) #4
  %32 = load ptr, ptr %9, align 8, !tbaa !9
  %33 = load i32, ptr %7, align 4, !tbaa !11
  %34 = add nsw i32 %33, 0
  %35 = sext i32 %34 to i64
  %36 = getelementptr inbounds i16, ptr %32, i64 %35
  %37 = load i16, ptr %36, align 2, !tbaa !13
  %38 = sext i16 %37 to i32
  %39 = load ptr, ptr %9, align 8, !tbaa !9
  %40 = load i32, ptr %7, align 4, !tbaa !11
  %41 = add nsw i32 %40, 8
  %42 = sext i32 %41 to i64
  %43 = getelementptr inbounds i16, ptr %39, i64 %42
  %44 = load i16, ptr %43, align 2, !tbaa !13
  %45 = sext i16 %44 to i32
  %46 = add i32 %38, %45
  store i32 %46, ptr %10, align 4, !tbaa !11
  call void @llvm.lifetime.start.p0(i64 4, ptr %11) #4
  %47 = load ptr, ptr %9, align 8, !tbaa !9
  %48 = load i32, ptr %7, align 4, !tbaa !11
  %49 = add nsw i32 %48, 0
  %50 = sext i32 %49 to i64
  %51 = getelementptr inbounds i16, ptr %47, i64 %50
  %52 = load i16, ptr %51, align 2, !tbaa !13
  %53 = sext i16 %52 to i32
  %54 = load ptr, ptr %9, align 8, !tbaa !9
  %55 = load i32, ptr %7, align 4, !tbaa !11
  %56 = add nsw i32 %55, 8
  %57 = sext i32 %56 to i64
  %58 = getelementptr inbounds i16, ptr %54, i64 %57
  %59 = load i16, ptr %58, align 2, !tbaa !13
  %60 = sext i16 %59 to i32
  %61 = sub i32 %53, %60
  store i32 %61, ptr %11, align 4, !tbaa !11
  call void @llvm.lifetime.start.p0(i64 4, ptr %12) #4
  %62 = load ptr, ptr %9, align 8, !tbaa !9
  %63 = load i32, ptr %7, align 4, !tbaa !11
  %64 = add nsw i32 %63, 4
  %65 = sext i32 %64 to i64
  %66 = getelementptr inbounds i16, ptr %62, i64 %65
  %67 = load i16, ptr %66, align 2, !tbaa !13
  %68 = sext i16 %67 to i32
  %69 = ashr i32 %68, 1
  %70 = load ptr, ptr %9, align 8, !tbaa !9
  %71 = load i32, ptr %7, align 4, !tbaa !11
  %72 = add nsw i32 %71, 12
  %73 = sext i32 %72 to i64
  %74 = getelementptr inbounds i16, ptr %70, i64 %73
  %75 = load i16, ptr %74, align 2, !tbaa !13
  %76 = sext i16 %75 to i32
  %77 = sub i32 %69, %76
  store i32 %77, ptr %12, align 4, !tbaa !11
  call void @llvm.lifetime.start.p0(i64 4, ptr %13) #4
  %78 = load ptr, ptr %9, align 8, !tbaa !9
  %79 = load i32, ptr %7, align 4, !tbaa !11
  %80 = add nsw i32 %79, 4
  %81 = sext i32 %80 to i64
  %82 = getelementptr inbounds i16, ptr %78, i64 %81
  %83 = load i16, ptr %82, align 2, !tbaa !13
  %84 = sext i16 %83 to i32
  %85 = load ptr, ptr %9, align 8, !tbaa !9
  %86 = load i32, ptr %7, align 4, !tbaa !11
  %87 = add nsw i32 %86, 12
  %88 = sext i32 %87 to i64
  %89 = getelementptr inbounds i16, ptr %85, i64 %88
  %90 = load i16, ptr %89, align 2, !tbaa !13
  %91 = sext i16 %90 to i32
  %92 = ashr i32 %91, 1
  %93 = add i32 %84, %92
  store i32 %93, ptr %13, align 4, !tbaa !11
  %94 = load i32, ptr %10, align 4, !tbaa !11
  %95 = load i32, ptr %13, align 4, !tbaa !11
  %96 = add i32 %94, %95
  %97 = trunc i32 %96 to i16
  %98 = load ptr, ptr %9, align 8, !tbaa !9
  %99 = load i32, ptr %7, align 4, !tbaa !11
  %100 = add nsw i32 %99, 0
  %101 = sext i32 %100 to i64
  %102 = getelementptr inbounds i16, ptr %98, i64 %101
  store i16 %97, ptr %102, align 2, !tbaa !13
  %103 = load i32, ptr %11, align 4, !tbaa !11
  %104 = load i32, ptr %12, align 4, !tbaa !11
  %105 = add i32 %103, %104
  %106 = trunc i32 %105 to i16
  %107 = load ptr, ptr %9, align 8, !tbaa !9
  %108 = load i32, ptr %7, align 4, !tbaa !11
  %109 = add nsw i32 %108, 4
  %110 = sext i32 %109 to i64
  %111 = getelementptr inbounds i16, ptr %107, i64 %110
  store i16 %106, ptr %111, align 2, !tbaa !13
  %112 = load i32, ptr %11, align 4, !tbaa !11
  %113 = load i32, ptr %12, align 4, !tbaa !11
  %114 = sub i32 %112, %113
  %115 = trunc i32 %114 to i16
  %116 = load ptr, ptr %9, align 8, !tbaa !9
  %117 = load i32, ptr %7, align 4, !tbaa !11
  %118 = add nsw i32 %117, 8
  %119 = sext i32 %118 to i64
  %120 = getelementptr inbounds i16, ptr %116, i64 %119
  store i16 %115, ptr %120, align 2, !tbaa !13
  %121 = load i32, ptr %10, align 4, !tbaa !11
  %122 = load i32, ptr %13, align 4, !tbaa !11
  %123 = sub i32 %121, %122
  %124 = trunc i32 %123 to i16
  %125 = load ptr, ptr %9, align 8, !tbaa !9
  %126 = load i32, ptr %7, align 4, !tbaa !11
  %127 = add nsw i32 %126, 12
  %128 = sext i32 %127 to i64
  %129 = getelementptr inbounds i16, ptr %125, i64 %128
  store i16 %124, ptr %129, align 2, !tbaa !13
  call void @llvm.lifetime.end.p0(i64 4, ptr %13) #4
  call void @llvm.lifetime.end.p0(i64 4, ptr %12) #4
  call void @llvm.lifetime.end.p0(i64 4, ptr %11) #4
  call void @llvm.lifetime.end.p0(i64 4, ptr %10) #4
  br label %130

130:                                              ; preds = %31
  %131 = load i32, ptr %7, align 4, !tbaa !11
  %132 = add nsw i32 %131, 1
  store i32 %132, ptr %7, align 4, !tbaa !11
  br label %28, !llvm.loop !15

133:                                              ; preds = %28
  store i32 0, ptr %7, align 4, !tbaa !11
  br label %134

134:                                              ; preds = %296, %133
  %135 = load i32, ptr %7, align 4, !tbaa !11
  %136 = icmp slt i32 %135, 4
  br i1 %136, label %137, label %299

137:                                              ; preds = %134
  call void @llvm.lifetime.start.p0(i64 4, ptr %14) #4
  %138 = load ptr, ptr %9, align 8, !tbaa !9
  %139 = load i32, ptr %7, align 4, !tbaa !11
  %140 = mul nsw i32 4, %139
  %141 = add nsw i32 0, %140
  %142 = sext i32 %141 to i64
  %143 = getelementptr inbounds i16, ptr %138, i64 %142
  %144 = load i16, ptr %143, align 2, !tbaa !13
  %145 = sext i16 %144 to i32
  %146 = load ptr, ptr %9, align 8, !tbaa !9
  %147 = load i32, ptr %7, align 4, !tbaa !11
  %148 = mul nsw i32 4, %147
  %149 = add nsw i32 2, %148
  %150 = sext i32 %149 to i64
  %151 = getelementptr inbounds i16, ptr %146, i64 %150
  %152 = load i16, ptr %151, align 2, !tbaa !13
  %153 = sext i16 %152 to i32
  %154 = add i32 %145, %153
  store i32 %154, ptr %14, align 4, !tbaa !11
  call void @llvm.lifetime.start.p0(i64 4, ptr %15) #4
  %155 = load ptr, ptr %9, align 8, !tbaa !9
  %156 = load i32, ptr %7, align 4, !tbaa !11
  %157 = mul nsw i32 4, %156
  %158 = add nsw i32 0, %157
  %159 = sext i32 %158 to i64
  %160 = getelementptr inbounds i16, ptr %155, i64 %159
  %161 = load i16, ptr %160, align 2, !tbaa !13
  %162 = sext i16 %161 to i32
  %163 = load ptr, ptr %9, align 8, !tbaa !9
  %164 = load i32, ptr %7, align 4, !tbaa !11
  %165 = mul nsw i32 4, %164
  %166 = add nsw i32 2, %165
  %167 = sext i32 %166 to i64
  %168 = getelementptr inbounds i16, ptr %163, i64 %167
  %169 = load i16, ptr %168, align 2, !tbaa !13
  %170 = sext i16 %169 to i32
  %171 = sub i32 %162, %170
  store i32 %171, ptr %15, align 4, !tbaa !11
  call void @llvm.lifetime.start.p0(i64 4, ptr %16) #4
  %172 = load ptr, ptr %9, align 8, !tbaa !9
  %173 = load i32, ptr %7, align 4, !tbaa !11
  %174 = mul nsw i32 4, %173
  %175 = add nsw i32 1, %174
  %176 = sext i32 %175 to i64
  %177 = getelementptr inbounds i16, ptr %172, i64 %176
  %178 = load i16, ptr %177, align 2, !tbaa !13
  %179 = sext i16 %178 to i32
  %180 = ashr i32 %179, 1
  %181 = load ptr, ptr %9, align 8, !tbaa !9
  %182 = load i32, ptr %7, align 4, !tbaa !11
  %183 = mul nsw i32 4, %182
  %184 = add nsw i32 3, %183
  %185 = sext i32 %184 to i64
  %186 = getelementptr inbounds i16, ptr %181, i64 %185
  %187 = load i16, ptr %186, align 2, !tbaa !13
  %188 = sext i16 %187 to i32
  %189 = sub i32 %180, %188
  store i32 %189, ptr %16, align 4, !tbaa !11
  call void @llvm.lifetime.start.p0(i64 4, ptr %17) #4
  %190 = load ptr, ptr %9, align 8, !tbaa !9
  %191 = load i32, ptr %7, align 4, !tbaa !11
  %192 = mul nsw i32 4, %191
  %193 = add nsw i32 1, %192
  %194 = sext i32 %193 to i64
  %195 = getelementptr inbounds i16, ptr %190, i64 %194
  %196 = load i16, ptr %195, align 2, !tbaa !13
  %197 = sext i16 %196 to i32
  %198 = load ptr, ptr %9, align 8, !tbaa !9
  %199 = load i32, ptr %7, align 4, !tbaa !11
  %200 = mul nsw i32 4, %199
  %201 = add nsw i32 3, %200
  %202 = sext i32 %201 to i64
  %203 = getelementptr inbounds i16, ptr %198, i64 %202
  %204 = load i16, ptr %203, align 2, !tbaa !13
  %205 = sext i16 %204 to i32
  %206 = ashr i32 %205, 1
  %207 = add i32 %197, %206
  store i32 %207, ptr %17, align 4, !tbaa !11
  %208 = load ptr, ptr %8, align 8, !tbaa !4
  %209 = load i32, ptr %7, align 4, !tbaa !11
  %210 = load i32, ptr %6, align 4, !tbaa !11
  %211 = mul nsw i32 0, %210
  %212 = add nsw i32 %209, %211
  %213 = sext i32 %212 to i64
  %214 = getelementptr inbounds i8, ptr %208, i64 %213
  %215 = load i8, ptr %214, align 1, !tbaa !17
  %216 = zext i8 %215 to i32
  %217 = load i32, ptr %14, align 4, !tbaa !11
  %218 = load i32, ptr %17, align 4, !tbaa !11
  %219 = add i32 %217, %218
  %220 = ashr i32 %219, 6
  %221 = add nsw i32 %216, %220
  %222 = call zeroext i8 @av_clip_uint8_c(i32 noundef %221) #5
  %223 = load ptr, ptr %8, align 8, !tbaa !4
  %224 = load i32, ptr %7, align 4, !tbaa !11
  %225 = load i32, ptr %6, align 4, !tbaa !11
  %226 = mul nsw i32 0, %225
  %227 = add nsw i32 %224, %226
  %228 = sext i32 %227 to i64
  %229 = getelementptr inbounds i8, ptr %223, i64 %228
  store i8 %222, ptr %229, align 1, !tbaa !17
  %230 = load ptr, ptr %8, align 8, !tbaa !4
  %231 = load i32, ptr %7, align 4, !tbaa !11
  %232 = load i32, ptr %6, align 4, !tbaa !11
  %233 = mul nsw i32 1, %232
  %234 = add nsw i32 %231, %233
  %235 = sext i32 %234 to i64
  %236 = getelementptr inbounds i8, ptr %230, i64 %235
  %237 = load i8, ptr %236, align 1, !tbaa !17
  %238 = zext i8 %237 to i32
  %239 = load i32, ptr %15, align 4, !tbaa !11
  %240 = load i32, ptr %16, align 4, !tbaa !11
  %241 = add i32 %239, %240
  %242 = ashr i32 %241, 6
  %243 = add nsw i32 %238, %242
  %244 = call zeroext i8 @av_clip_uint8_c(i32 noundef %243) #5
  %245 = load ptr, ptr %8, align 8, !tbaa !4
  %246 = load i32, ptr %7, align 4, !tbaa !11
  %247 = load i32, ptr %6, align 4, !tbaa !11
  %248 = mul nsw i32 1, %247
  %249 = add nsw i32 %246, %248
  %250 = sext i32 %249 to i64
  %251 = getelementptr inbounds i8, ptr %245, i64 %250
  store i8 %244, ptr %251, align 1, !tbaa !17
  %252 = load ptr, ptr %8, align 8, !tbaa !4
  %253 = load i32, ptr %7, align 4, !tbaa !11
  %254 = load i32, ptr %6, align 4, !tbaa !11
  %255 = mul nsw i32 2, %254
  %256 = add nsw i32 %253, %255
  %257 = sext i32 %256 to i64
  %258 = getelementptr inbounds i8, ptr %252, i64 %257
  %259 = load i8, ptr %258, align 1, !tbaa !17
  %260 = zext i8 %259 to i32
  %261 = load i32, ptr %15, align 4, !tbaa !11
  %262 = load i32, ptr %16, align 4, !tbaa !11
  %263 = sub i32 %261, %262
  %264 = ashr i32 %263, 6
  %265 = add nsw i32 %260, %264
  %266 = call zeroext i8 @av_clip_uint8_c(i32 noundef %265) #5
  %267 = load ptr, ptr %8, align 8, !tbaa !4
  %268 = load i32, ptr %7, align 4, !tbaa !11
  %269 = load i32, ptr %6, align 4, !tbaa !11
  %270 = mul nsw i32 2, %269
  %271 = add nsw i32 %268, %270
  %272 = sext i32 %271 to i64
  %273 = getelementptr inbounds i8, ptr %267, i64 %272
  store i8 %266, ptr %273, align 1, !tbaa !17
  %274 = load ptr, ptr %8, align 8, !tbaa !4
  %275 = load i32, ptr %7, align 4, !tbaa !11
  %276 = load i32, ptr %6, align 4, !tbaa !11
  %277 = mul nsw i32 3, %276
  %278 = add nsw i32 %275, %277
  %279 = sext i32 %278 to i64
  %280 = getelementptr inbounds i8, ptr %274, i64 %279
  %281 = load i8, ptr %280, align 1, !tbaa !17
  %282 = zext i8 %281 to i32
  %283 = load i32, ptr %14, align 4, !tbaa !11
  %284 = load i32, ptr %17, align 4, !tbaa !11
  %285 = sub i32 %283, %284
  %286 = ashr i32 %285, 6
  %287 = add nsw i32 %282, %286
  %288 = call zeroext i8 @av_clip_uint8_c(i32 noundef %287) #5
  %289 = load ptr, ptr %8, align 8, !tbaa !4
  %290 = load i32, ptr %7, align 4, !tbaa !11
  %291 = load i32, ptr %6, align 4, !tbaa !11
  %292 = mul nsw i32 3, %291
  %293 = add nsw i32 %290, %292
  %294 = sext i32 %293 to i64
  %295 = getelementptr inbounds i8, ptr %289, i64 %294
  store i8 %288, ptr %295, align 1, !tbaa !17
  call void @llvm.lifetime.end.p0(i64 4, ptr %17) #4
  call void @llvm.lifetime.end.p0(i64 4, ptr %16) #4
  call void @llvm.lifetime.end.p0(i64 4, ptr %15) #4
  call void @llvm.lifetime.end.p0(i64 4, ptr %14) #4
  br label %296

296:                                              ; preds = %137
  %297 = load i32, ptr %7, align 4, !tbaa !11
  %298 = add nsw i32 %297, 1
  store i32 %298, ptr %7, align 4, !tbaa !11
  br label %134, !llvm.loop !18

299:                                              ; preds = %134
  %300 = load ptr, ptr %9, align 8, !tbaa !9
  call void @llvm.memset.p0.i64(ptr align 2 %300, i8 0, i64 32, i1 false)
  call void @llvm.lifetime.end.p0(i64 8, ptr %9) #4
  call void @llvm.lifetime.end.p0(i64 8, ptr %8) #4
  call void @llvm.lifetime.end.p0(i64 4, ptr %7) #4
  ret void
}