; Function Attrs: nofree norecurse nosync nounwind memory(argmem: readwrite) uwtable
define void @ff_h264_idct_add_8_c(ptr noundef captures(none) %0, ptr noundef captures(none) %1, i32 noundef %2) local_unnamed_addr #0 {
  %4 = load i16, ptr %1, align 2, !tbaa !4
  %5 = add i16 %4, 32
  store i16 %5, ptr %1, align 2, !tbaa !4
  br label %11

.preheader:                                       ; preds = %11
  %6 = shl nsw i32 %2, 1
  %7 = mul nsw i32 %2, 3
  %8 = sext i32 %2 to i64
  %9 = sext i32 %6 to i64
  %10 = sext i32 %7 to i64
  %invariant.gep = getelementptr i8, ptr %0, i64 %8
  %invariant.gep104 = getelementptr i8, ptr %0, i64 %9
  %invariant.gep106 = getelementptr i8, ptr %0, i64 %10
  br label %38

11:                                               ; preds = %3, %11
  %indvars.iv = phi i64 [ 0, %3 ], [ %indvars.iv.next, %11 ]
  %12 = getelementptr inbounds nuw i16, ptr %1, i64 %indvars.iv
  %13 = load i16, ptr %12, align 2, !tbaa !4
  %14 = zext i16 %13 to i32
  %15 = getelementptr inbounds nuw i8, ptr %12, i64 16
  %16 = load i16, ptr %15, align 2, !tbaa !4
  %17 = zext i16 %16 to i32
  %18 = add nuw nsw i32 %17, %14
  %19 = sub nsw i32 %14, %17
  %20 = getelementptr inbounds nuw i8, ptr %12, i64 8
  %21 = load i16, ptr %20, align 2, !tbaa !4
  %22 = sext i16 %21 to i32
  %23 = ashr i32 %22, 1
  %24 = getelementptr inbounds nuw i8, ptr %12, i64 24
  %25 = load i16, ptr %24, align 2, !tbaa !4
  %26 = sext i16 %25 to i32
  %27 = sub nsw i32 %23, %26
  %28 = ashr i32 %26, 1
  %29 = add nsw i32 %28, %22
  %30 = add nsw i32 %29, %18
  %31 = trunc i32 %30 to i16
  store i16 %31, ptr %12, align 2, !tbaa !4
  %32 = add nsw i32 %27, %19
  %33 = trunc i32 %32 to i16
  store i16 %33, ptr %20, align 2, !tbaa !4
  %34 = sub nsw i32 %19, %27
  %35 = trunc i32 %34 to i16
  store i16 %35, ptr %15, align 2, !tbaa !4
  %36 = sub nsw i32 %18, %29
  %37 = trunc i32 %36 to i16
  store i16 %37, ptr %24, align 2, !tbaa !4
  %indvars.iv.next = add nuw nsw i64 %indvars.iv, 1
  %exitcond.not = icmp eq i64 %indvars.iv.next, 4
  br i1 %exitcond.not, label %.preheader, label %11, !llvm.loop !8

38:                                               ; preds = %.preheader, %38
  %indvars.iv100 = phi i64 [ 0, %.preheader ], [ %indvars.iv.next101, %38 ]
  %.idx = shl nuw nsw i64 %indvars.iv100, 3
  %39 = getelementptr inbounds nuw i8, ptr %1, i64 %.idx
  %40 = load i16, ptr %39, align 2, !tbaa !4
  %41 = sext i16 %40 to i32
  %42 = getelementptr inbounds nuw i8, ptr %39, i64 4
  %43 = load i16, ptr %42, align 2, !tbaa !4
  %44 = sext i16 %43 to i32
  %45 = add nsw i32 %44, %41
  %46 = sub nsw i32 %41, %44
  %47 = getelementptr inbounds nuw i8, ptr %39, i64 2
  %48 = load i16, ptr %47, align 2, !tbaa !4
  %49 = sext i16 %48 to i32
  %50 = ashr i32 %49, 1
  %51 = getelementptr inbounds nuw i8, ptr %39, i64 6
  %52 = load i16, ptr %51, align 2, !tbaa !4
  %53 = sext i16 %52 to i32
  %54 = sub nsw i32 %50, %53
  %55 = ashr i32 %53, 1
  %56 = add nsw i32 %55, %49
  %57 = getelementptr inbounds nuw i8, ptr %0, i64 %indvars.iv100
  %58 = load i8, ptr %57, align 1, !tbaa !10
  %59 = zext i8 %58 to i32
  %60 = add nsw i32 %56, %45
  %61 = ashr i32 %60, 6
  %62 = add nsw i32 %61, %59
  %.not.i = icmp ult i32 %62, 256
  %isnotneg.i = icmp sgt i32 %62, -1
  %63 = sext i1 %isnotneg.i to i8
  %64 = trunc nuw i32 %62 to i8
  %.0.i = select i1 %.not.i, i8 %64, i8 %63
  store i8 %.0.i, ptr %57, align 1, !tbaa !10
  %gep = getelementptr i8, ptr %invariant.gep, i64 %indvars.iv100
  %65 = load i8, ptr %gep, align 1, !tbaa !10
  %66 = zext i8 %65 to i32
  %67 = add nsw i32 %54, %46
  %68 = ashr i32 %67, 6
  %69 = add nsw i32 %68, %66
  %.not.i88 = icmp ult i32 %69, 256
  %isnotneg.i89 = icmp sgt i32 %69, -1
  %70 = sext i1 %isnotneg.i89 to i8
  %71 = trunc nuw i32 %69 to i8
  %.0.i90 = select i1 %.not.i88, i8 %71, i8 %70
  store i8 %.0.i90, ptr %gep, align 1, !tbaa !10
  %gep105 = getelementptr i8, ptr %invariant.gep104, i64 %indvars.iv100
  %72 = load i8, ptr %gep105, align 1, !tbaa !10
  %73 = zext i8 %72 to i32
  %74 = sub nsw i32 %46, %54
  %75 = ashr i32 %74, 6
  %76 = add nsw i32 %75, %73
  %.not.i91 = icmp ult i32 %76, 256
  %isnotneg.i92 = icmp sgt i32 %76, -1
  %77 = sext i1 %isnotneg.i92 to i8
  %78 = trunc nuw i32 %76 to i8
  %.0.i93 = select i1 %.not.i91, i8 %78, i8 %77
  store i8 %.0.i93, ptr %gep105, align 1, !tbaa !10
  %gep107 = getelementptr i8, ptr %invariant.gep106, i64 %indvars.iv100
  %79 = load i8, ptr %gep107, align 1, !tbaa !10
  %80 = zext i8 %79 to i32
  %81 = sub nsw i32 %45, %56
  %82 = ashr i32 %81, 6
  %83 = add nsw i32 %82, %80
  %.not.i94 = icmp ult i32 %83, 256
  %isnotneg.i95 = icmp sgt i32 %83, -1
  %84 = sext i1 %isnotneg.i95 to i8
  %85 = trunc nuw i32 %83 to i8
  %.0.i96 = select i1 %.not.i94, i8 %85, i8 %84
  store i8 %.0.i96, ptr %gep107, align 1, !tbaa !10
  %indvars.iv.next101 = add nuw nsw i64 %indvars.iv100, 1
  %exitcond103.not = icmp eq i64 %indvars.iv.next101, 4
  br i1 %exitcond103.not, label %86, label %38, !llvm.loop !11

86:                                               ; preds = %38
  tail call void @llvm.memset.p0.i64(ptr noundef nonnull align 2 dereferenceable(32) %1, i8 0, i64 32, i1 false)
  ret void
}